target datalayout = "e-m:e-p270:32:32-p271:32:32-p272:64:64-i64:64-i128:128-f80:128-n8:16:32:64-S128"
target triple = "x86_64-pc-linux-gnu"

%struct.stat_data = type { %struct.cache_time, %struct.cache_time, i32, i32, i32, i32, i32 }
%struct.cache_time = type { i32, i32 }
%struct.object_id = type { [32 x i8], i32 }
%struct.untracked_cache_dir = type { ptr, ptr, %struct.stat_data, i32, i32, i32, i32, i8, %struct.object_id, [0 x i8] }
%struct.read_data = type { i32, ptr, ptr, ptr, ptr, ptr, ptr }

; Function Attrs: inlinehint nounwind uwtable
define internal i32 @default_swab32(i32 noundef %0) #3 {
  %2 = alloca i32, align 4
  store i32 %0, ptr %2, align 4, !tbaa !16
  %3 = load i32, ptr %2, align 4, !tbaa !16
  %4 = and i32 %3, -16777216
  %5 = lshr i32 %4, 24
  %6 = load i32, ptr %2, align 4, !tbaa !16
  %7 = and i32 %6, 16711680
  %8 = lshr i32 %7, 8
  %9 = or i32 %5, %8
  %10 = load i32, ptr %2, align 4, !tbaa !16
  %11 = and i32 %10, 65280
  %12 = shl i32 %11, 8
  %13 = or i32 %9, %12
  %14 = load i32, ptr %2, align 4, !tbaa !16
  %15 = and i32 %14, 255
  %16 = shl i32 %15, 24
  %17 = or i32 %13, %16
  ret i32 %17
}

; Function Attrs: inlinehint nounwind uwtable
define internal i32 @git_bswap32(i32 noundef %0) #3 {
  %2 = alloca i32, align 4
  %3 = alloca i32, align 4
  store i32 %0, ptr %2, align 4, !tbaa !16
  call void @llvm.lifetime.start.p0(i64 4, ptr %3) #12
  %4 = load i32, ptr %2, align 4, !tbaa !16
  %5 = call i1 @llvm.is.constant.i32(i32 %4)
  br i1 %5, label %6, label %9

6:                                                ; preds = %1
  %7 = load i32, ptr %2, align 4, !tbaa !16
  %8 = call i32 @default_swab32(i32 noundef %7)
  store i32 %8, ptr %3, align 4, !tbaa !16
  br label %12

9:                                                ; preds = %1
  %10 = load i32, ptr %2, align 4, !tbaa !16
  %11 = call i32 asm "bswap $0", "=r,0,~{dirflag},~{fpsr},~{flags}"(i32 %10) #16, !srcloc !242
  store i32 %11, ptr %3, align 4, !tbaa !16
  br label %12

12:                                               ; preds = %9, %6
  %13 = load i32, ptr %3, align 4, !tbaa !16
  call void @llvm.lifetime.end.p0(i64 4, ptr %3) #12
  ret i32 %13
}

; Function Attrs: nounwind uwtable
define internal void @stat_data_from_disk(ptr noundef %0, ptr noundef %1) #0 {
  %3 = alloca ptr, align 8
  %4 = alloca ptr, align 8
  store ptr %0, ptr %3, align 8, !tbaa !231
  store ptr %1, ptr %4, align 8, !tbaa !13
  %5 = load ptr, ptr %3, align 8, !tbaa !231
  %6 = load ptr, ptr %4, align 8, !tbaa !13
  call void @llvm.memcpy.p0.p0.i64(ptr align 4 %5, ptr align 1 %6, i64 36, i1 false)
  %7 = load ptr, ptr %3, align 8, !tbaa !231
  %8 = getelementptr inbounds nuw %struct.stat_data, ptr %7, i32 0, i32 0
  %9 = getelementptr inbounds nuw %struct.cache_time, ptr %8, i32 0, i32 0
  %10 = load i32, ptr %9, align 4, !tbaa !233
  %11 = call i32 @git_bswap32(i32 noundef %10)
  %12 = load ptr, ptr %3, align 8, !tbaa !231
  %13 = getelementptr inbounds nuw %struct.stat_data, ptr %12, i32 0, i32 0
  %14 = getelementptr inbounds nuw %struct.cache_time, ptr %13, i32 0, i32 0
  store i32 %11, ptr %14, align 4, !tbaa !233
  %15 = load ptr, ptr %3, align 8, !tbaa !231
  %16 = getelementptr inbounds nuw %struct.stat_data, ptr %15, i32 0, i32 0
  %17 = getelementptr inbounds nuw %struct.cache_time, ptr %16, i32 0, i32 1
  %18 = load i32, ptr %17, align 4, !tbaa !234
  %19 = call i32 @git_bswap32(i32 noundef %18)
  %20 = load ptr, ptr %3, align 8, !tbaa !231
  %21 = getelementptr inbounds nuw %struct.stat_data, ptr %20, i32 0, i32 0
  %22 = getelementptr inbounds nuw %struct.cache_time, ptr %21, i32 0, i32 1
  store i32 %19, ptr %22, align 4, !tbaa !234
  %23 = load ptr, ptr %3, align 8, !tbaa !231
  %24 = getelementptr inbounds nuw %struct.stat_data, ptr %23, i32 0, i32 1
  %25 = getelementptr inbounds nuw %struct.cache_time, ptr %24, i32 0, i32 0
  %26 = load i32, ptr %25, align 4, !tbaa !235
  %27 = call i32 @git_bswap32(i32 noundef %26)
  %28 = load ptr, ptr %3, align 8, !tbaa !231
  %29 = getelementptr inbounds nuw %struct.stat_data, ptr %28, i32 0, i32 1
  %30 = getelementptr inbounds nuw %struct.cache_time, ptr %29, i32 0, i32 0
  store i32 %27, ptr %30, align 4, !tbaa !235
  %31 = load ptr, ptr %3, align 8, !tbaa !231
  %32 = getelementptr inbounds nuw %struct.stat_data, ptr %31, i32 0, i32 1
  %33 = getelementptr inbounds nuw %struct.cache_time, ptr %32, i32 0, i32 1
  %34 = load i32, ptr %33, align 4, !tbaa !236
  %35 = call i32 @git_bswap32(i32 noundef %34)
  %36 = load ptr, ptr %3, align 8, !tbaa !231
  %37 = getelementptr inbounds nuw %struct.stat_data, ptr %36, i32 0, i32 1
  %38 = getelementptr inbounds nuw %struct.cache_time, ptr %37, i32 0, i32 1
  store i32 %35, ptr %38, align 4, !tbaa !236
  %39 = load ptr, ptr %3, align 8, !tbaa !231
  %40 = getelementptr inbounds nuw %struct.stat_data, ptr %39, i32 0, i32 2
  %41 = load i32, ptr %40, align 4, !tbaa !237
  %42 = call i32 @git_bswap32(i32 noundef %41)
  %43 = load ptr, ptr %3, align 8, !tbaa !231
  %44 = getelementptr inbounds nuw %struct.stat_data, ptr %43, i32 0, i32 2
  store i32 %42, ptr %44, align 4, !tbaa !237
  %45 = load ptr, ptr %3, align 8, !tbaa !231
  %46 = getelementptr inbounds nuw %struct.stat_data, ptr %45, i32 0, i32 3
  %47 = load i32, ptr %46, align 4, !tbaa !238
  %48 = call i32 @git_bswap32(i32 noundef %47)
  %49 = load ptr, ptr %3, align 8, !tbaa !231
  %50 = getelementptr inbounds nuw %struct.stat_data, ptr %49, i32 0, i32 3
  store i32 %48, ptr %50, align 4, !tbaa !238
  %51 = load ptr, ptr %3, align 8, !tbaa !231
  %52 = getelementptr inbounds nuw %struct.stat_data, ptr %51, i32 0, i32 4
  %53 = load i32, ptr %52, align 4, !tbaa !239
  %54 = call i32 @git_bswap32(i32 noundef %53)
  %55 = load ptr, ptr %3, align 8, !tbaa !231
  %56 = getelementptr inbounds nuw %struct.stat_data, ptr %55, i32 0, i32 4
  store i32 %54, ptr %56, align 4, !tbaa !239
  %57 = load ptr, ptr %3, align 8, !tbaa !231
  %58 = getelementptr inbounds nuw %struct.stat_data, ptr %57, i32 0, i32 5
  %59 = load i32, ptr %58, align 4, !tbaa !240
  %60 = call i32 @git_bswap32(i32 noundef %59)
  %61 = load ptr, ptr %3, align 8, !tbaa !231
  %62 = getelementptr inbounds nuw %struct.stat_data, ptr %61, i32 0, i32 5
  store i32 %60, ptr %62, align 4, !tbaa !240
  %63 = load ptr, ptr %3, align 8, !tbaa !231
  %64 = getelementptr inbounds nuw %struct.stat_data, ptr %63, i32 0, i32 6
  %65 = load i32, ptr %64, align 4, !tbaa !241
  %66 = call i32 @git_bswap32(i32 noundef %65)
  %67 = load ptr, ptr %3, align 8, !tbaa !231
  %68 = getelementptr inbounds nuw %struct.stat_data, ptr %67, i32 0, i32 6
  store i32 %66, ptr %68, align 4, !tbaa !241
  ret void
}

; Function Attrs: nounwind uwtable
define internal void @read_stat(i64 noundef %0, ptr noundef %1) #0 {
  %3 = alloca i64, align 8
  %4 = alloca ptr, align 8
  %5 = alloca ptr, align 8
  %6 = alloca ptr, align 8
  %7 = alloca i32, align 4
  store i64 %0, ptr %3, align 8, !tbaa !19
  store ptr %1, ptr %4, align 8, !tbaa !106
  call void @llvm.lifetime.start.p0(i64 8, ptr %5) #12
  %8 = load ptr, ptr %4, align 8, !tbaa !106
  store ptr %8, ptr %5, align 8, !tbaa !261
  call void @llvm.lifetime.start.p0(i64 8, ptr %6) #12
  %9 = load ptr, ptr %5, align 8, !tbaa !261
  %10 = getelementptr inbounds nuw %struct.read_data, ptr %9, i32 0, i32 1
  %11 = load ptr, ptr %10, align 8, !tbaa !260
  %12 = load i64, ptr %3, align 8, !tbaa !19
  %13 = getelementptr inbounds nuw ptr, ptr %11, i64 %12
  %14 = load ptr, ptr %13, align 8, !tbaa !71
  store ptr %14, ptr %6, align 8, !tbaa !71
  %15 = load ptr, ptr %5, align 8, !tbaa !261
  %16 = getelementptr inbounds nuw %struct.read_data, ptr %15, i32 0, i32 5
  %17 = load ptr, ptr %16, align 8, !tbaa !257
  %18 = getelementptr inbounds nuw i8, ptr %17, i64 36
  %19 = load ptr, ptr %5, align 8, !tbaa !261
  %20 = getelementptr inbounds nuw %struct.read_data, ptr %19, i32 0, i32 6
  %21 = load ptr, ptr %20, align 8, !tbaa !258
  %22 = icmp ugt ptr %18, %21
  br i1 %22, label %23, label %30

23:                                               ; preds = %2
  %24 = load ptr, ptr %5, align 8, !tbaa !261
  %25 = getelementptr inbounds nuw %struct.read_data, ptr %24, i32 0, i32 6
  %26 = load ptr, ptr %25, align 8, !tbaa !258
  %27 = getelementptr inbounds i8, ptr %26, i64 1
  %28 = load ptr, ptr %5, align 8, !tbaa !261
  %29 = getelementptr inbounds nuw %struct.read_data, ptr %28, i32 0, i32 5
  store ptr %27, ptr %29, align 8, !tbaa !257
  store i32 1, ptr %7, align 4
  br label %45

30:                                               ; preds = %2
  %31 = load ptr, ptr %6, align 8, !tbaa !71
  %32 = getelementptr inbounds nuw %struct.untracked_cache_dir, ptr %31, i32 0, i32 2
  %33 = load ptr, ptr %5, align 8, !tbaa !261
  %34 = getelementptr inbounds nuw %struct.read_data, ptr %33, i32 0, i32 5
  %35 = load ptr, ptr %34, align 8, !tbaa !257
  call void @stat_data_from_disk(ptr noundef %32, ptr noundef %35)
  %36 = load ptr, ptr %5, align 8, !tbaa !261
  %37 = getelementptr inbounds nuw %struct.read_data, ptr %36, i32 0, i32 5
  %38 = load ptr, ptr %37, align 8, !tbaa !257
  %39 = getelementptr inbounds nuw i8, ptr %38, i64 36
  store ptr %39, ptr %37, align 8, !tbaa !257
  %40 = load ptr, ptr %6, align 8, !tbaa !71
  %41 = getelementptr inbounds nuw %struct.untracked_cache_dir, ptr %40, i32 0, i32 7
  %42 = load i8, ptr %41, align 4
  %43 = and i8 %42, -3
  %44 = or i8 %43, 2
  store i8 %44, ptr %41, align 4
  store i32 0, ptr %7, align 4
  br label %45

45:                                               ; preds = %30, %23
  call void @llvm.lifetime.end.p0(i64 8, ptr %6) #12
  call void @llvm.lifetime.end.p0(i64 8, ptr %5) #12
  %46 = load i32, ptr %7, align 4
  switch i32 %46, label %48 [
    i32 0, label %47
    i32 1, label %47
  ]

47:                                               ; preds = %45, %45
  ret void

48:                                               ; preds = %45
  unreachable
}