; Function Attrs: nounwind memory(readwrite, inaccessiblemem: none) uwtable
define internal void @read_stat(i64 noundef %0, ptr noundef captures(none) %1) #20 {
  %3 = getelementptr inbounds nuw i8, ptr %1, i64 40
  %4 = load ptr, ptr %3, align 8, !tbaa !232
  %5 = getelementptr inbounds nuw i8, ptr %4, i64 36
  %6 = getelementptr inbounds nuw i8, ptr %1, i64 48
  %7 = load ptr, ptr %6, align 8, !tbaa !233
  %8 = icmp ugt ptr %5, %7
  br i1 %8, label %9, label %git_bswap32.exit.i

9:                                                ; preds = %2
  %10 = getelementptr inbounds nuw i8, ptr %7, i64 1
  store ptr %10, ptr %3, align 8, !tbaa !232
  br label %47

git_bswap32.exit.i:                               ; preds = %2
  %11 = getelementptr inbounds nuw i8, ptr %1, i64 8
  %12 = load ptr, ptr %11, align 8, !tbaa !235
  %13 = getelementptr inbounds nuw ptr, ptr %12, i64 %0
  %14 = load ptr, ptr %13, align 8, !tbaa !158
  %15 = getelementptr inbounds nuw i8, ptr %14, i64 16
  tail call void @llvm.memcpy.p0.p0.i64(ptr noundef nonnull align 4 dereferenceable(36) %15, ptr noundef nonnull readonly align 1 dereferenceable(36) %4, i64 36, i1 false)
  %16 = load i32, ptr %15, align 4, !tbaa !204
  %17 = tail call i32 asm "bswap $0", "=r,0,~{dirflag},~{fpsr},~{flags}"(i32 %16) #31, !srcloc !205
  store i32 %17, ptr %15, align 4, !tbaa !204
  %18 = getelementptr inbounds nuw i8, ptr %14, i64 20
  %19 = load i32, ptr %18, align 4, !tbaa !206
  %20 = tail call i32 asm "bswap $0", "=r,0,~{dirflag},~{fpsr},~{flags}"(i32 %19) #31, !srcloc !205
  store i32 %20, ptr %18, align 4, !tbaa !206
  %21 = getelementptr inbounds nuw i8, ptr %14, i64 24
  %22 = load i32, ptr %21, align 4, !tbaa !207
  %23 = tail call i32 asm "bswap $0", "=r,0,~{dirflag},~{fpsr},~{flags}"(i32 %22) #31, !srcloc !205
  store i32 %23, ptr %21, align 4, !tbaa !207
  %24 = getelementptr inbounds nuw i8, ptr %14, i64 28
  %25 = load i32, ptr %24, align 4, !tbaa !208
  %26 = tail call i32 asm "bswap $0", "=r,0,~{dirflag},~{fpsr},~{flags}"(i32 %25) #31, !srcloc !205
  store i32 %26, ptr %24, align 4, !tbaa !208
  %27 = getelementptr inbounds nuw i8, ptr %14, i64 32
  %28 = load i32, ptr %27, align 4, !tbaa !209
  %29 = tail call i32 asm "bswap $0", "=r,0,~{dirflag},~{fpsr},~{flags}"(i32 %28) #31, !srcloc !205
  store i32 %29, ptr %27, align 4, !tbaa !209
  %30 = getelementptr inbounds nuw i8, ptr %14, i64 36
  %31 = load i32, ptr %30, align 4, !tbaa !210
  %32 = tail call i32 asm "bswap $0", "=r,0,~{dirflag},~{fpsr},~{flags}"(i32 %31) #31, !srcloc !205
  store i32 %32, ptr %30, align 4, !tbaa !210
  %33 = getelementptr inbounds nuw i8, ptr %14, i64 40
  %34 = load i32, ptr %33, align 4, !tbaa !211
  %35 = tail call i32 asm "bswap $0", "=r,0,~{dirflag},~{fpsr},~{flags}"(i32 %34) #31, !srcloc !205
  store i32 %35, ptr %33, align 4, !tbaa !211
  %36 = getelementptr inbounds nuw i8, ptr %14, i64 44
  %37 = load i32, ptr %36, align 4, !tbaa !212
  %38 = tail call i32 asm "bswap $0", "=r,0,~{dirflag},~{fpsr},~{flags}"(i32 %37) #31, !srcloc !205
  store i32 %38, ptr %36, align 4, !tbaa !212
  %39 = getelementptr inbounds nuw i8, ptr %14, i64 48
  %40 = load i32, ptr %39, align 4, !tbaa !213
  %41 = tail call i32 asm "bswap $0", "=r,0,~{dirflag},~{fpsr},~{flags}"(i32 %40) #31, !srcloc !205
  store i32 %41, ptr %39, align 4, !tbaa !213
  %42 = load ptr, ptr %3, align 8, !tbaa !232
  %43 = getelementptr inbounds nuw i8, ptr %42, i64 36
  store ptr %43, ptr %3, align 8, !tbaa !232
  %44 = getelementptr inbounds nuw i8, ptr %14, i64 68
  %45 = load i8, ptr %44, align 4
  %46 = or i8 %45, 2
  store i8 %46, ptr %44, align 4
  br label %47

47:                                               ; preds = %git_bswap32.exit.i, %9
  ret void
}